; Function Attrs: nounwind uwtable
define void @duckdb_je_edata_cache_put(ptr noundef %0, ptr noundef %1, ptr noundef %2) local_unnamed_addr #0 {
  %4 = getelementptr inbounds nuw i8, ptr %1, i64 96
  %5 = tail call i32 @pthread_mutex_trylock(ptr noundef nonnull %4) #4
  %.not.i = icmp eq i32 %5, 0
  br i1 %.not.i, label %9, label %6

6:                                                ; preds = %3
  %7 = getelementptr inbounds nuw i8, ptr %1, i64 24
  tail call void @duckdb_je_malloc_mutex_lock_slow(ptr noundef nonnull %7) #4
  %8 = getelementptr inbounds nuw i8, ptr %1, i64 88
  store atomic i8 1, ptr %8 monotonic, align 1
  br label %9

9:                                                ; preds = %6, %3
  %10 = getelementptr inbounds nuw i8, ptr %1, i64 80
  %11 = load i64, ptr %10, align 8, !tbaa !14
  %12 = add i64 %11, 1
  store i64 %12, ptr %10, align 8, !tbaa !14
  %13 = getelementptr inbounds nuw i8, ptr %1, i64 72
  %14 = load ptr, ptr %13, align 8, !tbaa !19
  %.not.i.i = icmp eq ptr %14, %0
  br i1 %.not.i.i, label %malloc_mutex_lock.exit, label %15

15:                                               ; preds = %9
  store ptr %0, ptr %13, align 8, !tbaa !19
  %16 = getelementptr inbounds nuw i8, ptr %1, i64 64
  %17 = load i64, ptr %16, align 8, !tbaa !20
  %18 = add i64 %17, 1
  store i64 %18, ptr %16, align 8, !tbaa !20
  br label %malloc_mutex_lock.exit

malloc_mutex_lock.exit:                           ; preds = %9, %15
  tail call void @duckdb_je_edata_avail_insert(ptr noundef nonnull %1, ptr noundef %2) #4
  %19 = getelementptr inbounds nuw i8, ptr %1, i64 16
  %20 = load atomic i64, ptr %19 monotonic, align 8
  %21 = add i64 %20, 1
  store atomic i64 %21, ptr %19 monotonic, align 8
  %22 = getelementptr inbounds nuw i8, ptr %1, i64 88
  store atomic i8 0, ptr %22 monotonic, align 1
  %23 = tail call i32 @pthread_mutex_unlock(ptr noundef nonnull %4) #4
  ret void
}